; Function Attrs: nounwind uwtable
define i32 @dt_color_harmony_get_id(i32 noundef %0) local_unnamed_addr #1 {
  %2 = alloca ptr, align 8
  call void @llvm.lifetime.start.p0(i64 8, ptr nonnull %2) #5
  store ptr null, ptr %2, align 8, !tbaa !13
  %3 = load i32, ptr getelementptr inbounds nuw (i8, ptr @darktable, i64 8), align 8, !tbaa !16
  %4 = and i32 %3, 256
  %.not = icmp eq i32 %4, 0
  br i1 %.not, label %6, label %5

5:                                                ; preds = %1
  tail call void (ptr, ...) @dt_print_ext(ptr noundef nonnull @.str, ptr noundef nonnull @.str.1, i32 noundef 76, ptr noundef nonnull @__FUNCTION__.dt_color_harmony_get_id, ptr noundef nonnull @.str.6) #5
  br label %6

6:                                                ; preds = %5, %1
  %7 = load ptr, ptr getelementptr inbounds nuw (i8, ptr @darktable, i64 136), align 8, !tbaa !54
  %8 = tail call ptr @dt_database_get(ptr noundef %7) #5
  %9 = call i32 @sqlite3_prepare_v2(ptr noundef %8, ptr noundef nonnull @.str.6, i32 noundef -1, ptr noundef nonnull %2, ptr noundef null) #5
  %.not4 = icmp eq i32 %9, 0
  br i1 %.not4, label %16, label %10

10:                                               ; preds = %6
  %11 = load ptr, ptr @stderr, align 8, !tbaa !55
  %12 = load ptr, ptr getelementptr inbounds nuw (i8, ptr @darktable, i64 136), align 8, !tbaa !54
  %13 = call ptr @dt_database_get(ptr noundef %12) #5
  %14 = call ptr @sqlite3_errmsg(ptr noundef %13) #5
  %15 = call i32 (ptr, ptr, ...) @fprintf(ptr noundef %11, ptr noundef nonnull @.str.3, ptr noundef nonnull @.str.1, i32 noundef 76, ptr noundef nonnull @__FUNCTION__.dt_color_harmony_get_id, ptr noundef nonnull @.str.6, ptr noundef %14) #6
  br label %16

16:                                               ; preds = %10, %6
  %17 = load ptr, ptr %2, align 8, !tbaa !13
  %18 = call i32 @sqlite3_bind_int(ptr noundef %17, i32 noundef 1, i32 noundef %0) #5
  %.not5 = icmp eq i32 %18, 0
  br i1 %.not5, label %25, label %19

19:                                               ; preds = %16
  %20 = load ptr, ptr @stderr, align 8, !tbaa !55
  %21 = load ptr, ptr getelementptr inbounds nuw (i8, ptr @darktable, i64 136), align 8, !tbaa !54
  %22 = call ptr @dt_database_get(ptr noundef %21) #5
  %23 = call ptr @sqlite3_errmsg(ptr noundef %22) #5
  %24 = call i32 (ptr, ptr, ...) @fprintf(ptr noundef %20, ptr noundef nonnull @.str.5, ptr noundef nonnull @.str.1, i32 noundef 78, ptr noundef nonnull @__FUNCTION__.dt_color_harmony_get_id, ptr noundef %23) #6
  br label %25

25:                                               ; preds = %19, %16
  %26 = load ptr, ptr %2, align 8, !tbaa !13
  %27 = call i32 @sqlite3_step(ptr noundef %26) #5
  %28 = icmp eq i32 %27, 100
  br i1 %28, label %29, label %32

29:                                               ; preds = %25
  %30 = load ptr, ptr %2, align 8, !tbaa !13
  %31 = call i32 @sqlite3_column_int(ptr noundef %30, i32 noundef 0) #5
  br label %32

32:                                               ; preds = %29, %25
  %.0 = phi i32 [ %31, %29 ], [ -1, %25 ]
  call void @llvm.lifetime.end.p0(i64 8, ptr nonnull %2) #5
  ret i32 %.0
}